; Function Attrs: mustprogress uwtable
define noundef ptr @grpc_alts_server_credentials_create(ptr noundef %options) local_unnamed_addr #3 personality ptr @__gxx_personality_v0 {
entry:
  %call.i = tail call noundef zeroext i1 @_Z27grpc_alts_is_running_on_gcpv()
  br i1 %call.i, label %if.end.i, label %_Z46grpc_alts_server_credentials_create_customizedPK29grpc_alts_credentials_optionsPKcb.exit

if.end.i:                                         ; preds = %entry
  %call1.i = tail call noalias noundef nonnull dereferenceable(56) ptr @_Znwm(i64 noundef 56) #17
  invoke void @_ZN28grpc_alts_server_credentialsC1EPK29grpc_alts_credentials_optionsPKc(ptr noundef nonnull align 8 dereferenceable(56) %call1.i, ptr noundef %options, ptr noundef nonnull @.str)
          to label %_Z46grpc_alts_server_credentials_create_customizedPK29grpc_alts_credentials_optionsPKcb.exit unwind label %lpad.i

lpad.i:                                           ; preds = %if.end.i
  %0 = landingpad { ptr, i32 }
          cleanup
  tail call void @_ZdlPv(ptr noundef nonnull %call1.i) #16
  resume { ptr, i32 } %0

_Z46grpc_alts_server_credentials_create_customizedPK29grpc_alts_credentials_optionsPKcb.exit: ; preds = %entry, %if.end.i
  %retval.0.i = phi ptr [ null, %entry ], [ %call1.i, %if.end.i ]
  ret ptr %retval.0.i
}